target datalayout = "e-m:e-p270:32:32-p271:32:32-p272:64:64-i64:64-i128:128-f80:128-n8:16:32:64-S128"
target triple = "x86_64-pc-linux-gnu"

%struct.jit_State = type { %struct.GCtrace, ptr, ptr, ptr, ptr, ptr, ptr, i32, i32, i32, i8, i8, %struct.IRType1, i8, %struct.FoldState, ptr, i32, i32, i32, i32, i32, i32, i32, [1 x i32], [5 x %union.TValue], [3 x %union.TValue], ptr, i32, i32, i32, i32, ptr, ptr, i32, i32, i8, ptr, i32, i32, i16, [101 x i16], [258 x i32], [15 x i32], [16 x ptr], [64 x %struct.HotPenalty], i32, [16 x %struct.BPropEntry], i32, %struct.ScEvEntry, ptr, i32, i32, i32, ptr, i32, i32, ptr, ptr, ptr, i64, i64, %union.TValue, ptr, i32, i32 }
%struct.GCtrace = type { %struct.GCRef, i8, i8, i16, i32, i32, %struct.GCRef, ptr, i32, i32, ptr, ptr, %struct.GCRef, %struct.MRef, i32, i32, ptr, i32, i16, i16, i16, i16, i16, i16, i16, i8, i8, i8, i8 }
%struct.GCRef = type { i64 }
%struct.MRef = type { i64 }
%struct.IRType1 = type { i8 }
%struct.FoldState = type { %union.IRIns, [2 x %union.IRIns], [2 x %union.IRIns] }
%union.IRIns = type { %struct.GCRef }
%struct.HotPenalty = type { %struct.MRef, i16, i16 }
%struct.BPropEntry = type { i16, i16, i32 }
%struct.ScEvEntry = type { %struct.MRef, i16, i16, i16, i16, %struct.IRType1, i8 }
%union.TValue = type { i64 }
%struct.anon.0 = type { i32, %struct.IRType1, i8, i8, i8 }
%struct.anon = type { i16, i16, i16, i16 }

; Function Attrs: nounwind uwtable
define internal i32 @fold_simplify_intsub_k(ptr noundef %0) #0 {
  %2 = alloca i32, align 4
  %3 = alloca ptr, align 8
  store ptr %0, ptr %3, align 8, !tbaa !4
  %4 = load ptr, ptr %3, align 8, !tbaa !4
  %5 = getelementptr inbounds nuw %struct.jit_State, ptr %4, i32 0, i32 14
  %6 = getelementptr inbounds nuw %struct.FoldState, ptr %5, i32 0, i32 2
  %7 = getelementptr inbounds [2 x %union.IRIns], ptr %6, i64 0, i64 0
  %8 = load i32, ptr %7, align 8, !tbaa !29
  %9 = icmp eq i32 %8, 0
  br i1 %9, label %10, label %17

10:                                               ; preds = %1
  %11 = load ptr, ptr %3, align 8, !tbaa !4
  %12 = getelementptr inbounds nuw %struct.jit_State, ptr %11, i32 0, i32 14
  %13 = getelementptr inbounds nuw %struct.FoldState, ptr %12, i32 0, i32 0
  %14 = getelementptr inbounds nuw %struct.anon, ptr %13, i32 0, i32 0
  %15 = load i16, ptr %14, align 8, !tbaa !29
  %16 = zext i16 %15 to i32
  store i32 %16, ptr %2, align 4
  br label %36

17:                                               ; preds = %1
  %18 = load ptr, ptr %3, align 8, !tbaa !4
  %19 = getelementptr inbounds nuw %struct.jit_State, ptr %18, i32 0, i32 14
  %20 = getelementptr inbounds nuw %struct.FoldState, ptr %19, i32 0, i32 0
  %21 = getelementptr inbounds nuw %struct.anon.0, ptr %20, i32 0, i32 2
  store i8 41, ptr %21, align 1, !tbaa !29
  %22 = load ptr, ptr %3, align 8, !tbaa !4
  %23 = load ptr, ptr %3, align 8, !tbaa !4
  %24 = getelementptr inbounds nuw %struct.jit_State, ptr %23, i32 0, i32 14
  %25 = getelementptr inbounds nuw %struct.FoldState, ptr %24, i32 0, i32 2
  %26 = getelementptr inbounds [2 x %union.IRIns], ptr %25, i64 0, i64 0
  %27 = load i32, ptr %26, align 8, !tbaa !29
  %28 = xor i32 %27, -1
  %29 = add i32 %28, 1
  %30 = call i32 @lj_ir_kint(ptr noundef %22, i32 noundef %29)
  %31 = trunc i32 %30 to i16
  %32 = load ptr, ptr %3, align 8, !tbaa !4
  %33 = getelementptr inbounds nuw %struct.jit_State, ptr %32, i32 0, i32 14
  %34 = getelementptr inbounds nuw %struct.FoldState, ptr %33, i32 0, i32 0
  %35 = getelementptr inbounds nuw %struct.anon, ptr %34, i32 0, i32 1
  store i16 %31, ptr %35, align 2, !tbaa !29
  store i32 1, ptr %2, align 4
  br label %36

36:                                               ; preds = %17, %10
  %37 = load i32, ptr %2, align 4
  ret i32 %37
}