; Function Attrs: nounwind uwtable
define internal range(i32 0, 65536) i32 @fold_simplify_intsub_k(ptr noundef %0) #0 {
  %2 = getelementptr inbounds nuw i8, ptr %0, i64 208
  %3 = load i32, ptr %2, align 8, !tbaa !28
  %4 = icmp eq i32 %3, 0
  br i1 %4, label %5, label %9

5:                                                ; preds = %1
  %6 = getelementptr inbounds nuw i8, ptr %0, i64 184
  %7 = load i16, ptr %6, align 8, !tbaa !28
  %8 = zext i16 %7 to i32
  br label %15

9:                                                ; preds = %1
  %10 = getelementptr inbounds nuw i8, ptr %0, i64 189
  store i8 41, ptr %10, align 1, !tbaa !28
  %11 = sub i32 0, %3
  %12 = tail call i32 @lj_ir_kint(ptr noundef nonnull %0, i32 noundef %11) #12
  %13 = trunc i32 %12 to i16
  %14 = getelementptr inbounds nuw i8, ptr %0, i64 186
  store i16 %13, ptr %14, align 2, !tbaa !28
  br label %15

15:                                               ; preds = %9, %5
  %.0 = phi i32 [ %8, %5 ], [ 1, %9 ]
  ret i32 %.0
}